; Function Attrs: nounwind uwtable
define dso_local void @PyErr_SetHandledException(ptr noundef %0) local_unnamed_addr #0 {
  %2 = tail call align 8 ptr @llvm.threadlocal.address.p0(ptr align 8 @_Py_tss_tstate)
  %3 = load ptr, ptr %2, align 8, !tbaa !25
  %4 = getelementptr inbounds nuw i8, ptr %3, i64 120
  %5 = load ptr, ptr %4, align 8, !tbaa !38
  %6 = load ptr, ptr %5, align 8, !tbaa !24
  %7 = icmp eq ptr %0, @_Py_NoneStruct
  %8 = select i1 %7, ptr null, ptr %0
  %.not.i.i.i = icmp eq ptr %8, null
  br i1 %.not.i.i.i, label %_Py_XNewRef.exit.i, label %9

9:                                                ; preds = %1
  %10 = load i32, ptr %8, align 8, !tbaa !20
  %11 = icmp slt i32 %10, 0
  br i1 %11, label %_Py_XNewRef.exit.i, label %12

12:                                               ; preds = %9
  %13 = add nuw i32 %10, 1
  store i32 %13, ptr %8, align 8, !tbaa !20
  br label %_Py_XNewRef.exit.i

_Py_XNewRef.exit.i:                               ; preds = %12, %9, %1
  store ptr %8, ptr %5, align 8, !tbaa !24
  %.not.i.i = icmp eq ptr %6, null
  br i1 %.not.i.i, label %_PyErr_SetHandledException.exit, label %14

14:                                               ; preds = %_Py_XNewRef.exit.i
  %15 = load i32, ptr %6, align 8, !tbaa !20
  %.not.i.i6.i = icmp sgt i32 %15, -1
  br i1 %.not.i.i6.i, label %16, label %_PyErr_SetHandledException.exit

16:                                               ; preds = %14
  %17 = add nsw i32 %15, -1
  store i32 %17, ptr %6, align 8, !tbaa !20
  %18 = icmp eq i32 %17, 0
  br i1 %18, label %19, label %_PyErr_SetHandledException.exit

19:                                               ; preds = %16
  tail call void @_Py_Dealloc(ptr noundef nonnull %6) #17
  br label %_PyErr_SetHandledException.exit

_PyErr_SetHandledException.exit:                  ; preds = %_Py_XNewRef.exit.i, %14, %16, %19
  ret void
}